target datalayout = "e-m:e-p270:32:32-p271:32:32-p272:64:64-i64:64-i128:128-f80:128-n8:16:32:64-S128"
target triple = "x86_64-pc-linux-gnu"

; Function Attrs: null_pointer_is_valid sspstrong uwtable
define internal i32 @dissect_ositp(ptr noundef %0, ptr noundef %1, ptr noundef %2, ptr noundef %3) #0 {
  %5 = alloca ptr, align 8
  %6 = alloca ptr, align 8
  %7 = alloca ptr, align 8
  %8 = alloca ptr, align 8
  store ptr %0, ptr %5, align 8
  store ptr %1, ptr %6, align 8
  store ptr %2, ptr %7, align 8
  store ptr %3, ptr %8, align 8
  %9 = load ptr, ptr %5, align 8
  %10 = load ptr, ptr %6, align 8
  %11 = load ptr, ptr %7, align 8
  %12 = call i32 @dissect_ositp_internal(ptr noundef %9, ptr noundef %10, ptr noundef %11, i1 noundef zeroext false)
  ret i32 %12
}

; Function Attrs: null_pointer_is_valid sspstrong uwtable
define internal zeroext i1 @test_cltp_var_part(ptr noundef %0) #0 {
  %2 = alloca i1, align 1
  %3 = alloca ptr, align 8
  %4 = alloca i32, align 4
  %5 = alloca i8, align 1
  %6 = alloca i32, align 4
  store ptr %0, ptr %3, align 8
  call void @llvm.lifetime.start.p0(i64 4, ptr %4) #7
  store i32 0, ptr %4, align 4
  call void @llvm.lifetime.start.p0(i64 1, ptr %5) #7
  br label %7

7:                                                ; preds = %43, %1
  %8 = load ptr, ptr %3, align 8
  %9 = load i32, ptr %4, align 4
  %10 = call i32 @tvb_captured_length_remaining(ptr noundef %8, i32 noundef %9)
  %11 = icmp ne i32 %10, 0
  br i1 %11, label %12, label %48

12:                                               ; preds = %7
  %13 = load ptr, ptr %3, align 8
  %14 = load i32, ptr %4, align 4
  %15 = call i32 @tvb_captured_length_remaining(ptr noundef %13, i32 noundef %14)
  %16 = icmp slt i32 %15, 2
  br i1 %16, label %17, label %18

17:                                               ; preds = %12
  store i1 false, ptr %2, align 1
  store i32 1, ptr %6, align 4
  br label %49

18:                                               ; preds = %12
  %19 = load ptr, ptr %3, align 8
  %20 = load i32, ptr %4, align 4
  %21 = add i32 %20, 1
  store i32 %21, ptr %4, align 4
  %22 = call zeroext i8 @tvb_get_uint8(ptr noundef %19, i32 noundef %20)
  %23 = zext i8 %22 to i32
  switch i32 %23, label %25 [
    i32 193, label %24
    i32 194, label %24
    i32 195, label %24
  ]

24:                                               ; preds = %18, %18, %18
  br label %26

25:                                               ; preds = %18
  store i1 false, ptr %2, align 1
  store i32 1, ptr %6, align 4
  br label %49

26:                                               ; preds = %24
  %27 = load ptr, ptr %3, align 8
  %28 = load i32, ptr %4, align 4
  %29 = add i32 %28, 1
  store i32 %29, ptr %4, align 4
  %30 = call zeroext i8 @tvb_get_uint8(ptr noundef %27, i32 noundef %28)
  store i8 %30, ptr %5, align 1
  %31 = load i8, ptr %5, align 1
  %32 = zext i8 %31 to i32
  %33 = icmp eq i32 %32, 255
  br i1 %33, label %34, label %35

34:                                               ; preds = %26
  store i1 false, ptr %2, align 1
  store i32 1, ptr %6, align 4
  br label %49

35:                                               ; preds = %26
  %36 = load ptr, ptr %3, align 8
  %37 = load i32, ptr %4, align 4
  %38 = call i32 @tvb_captured_length_remaining(ptr noundef %36, i32 noundef %37)
  %39 = load i8, ptr %5, align 1
  %40 = zext i8 %39 to i32
  %41 = icmp slt i32 %38, %40
  br i1 %41, label %42, label %43

42:                                               ; preds = %35
  store i1 false, ptr %2, align 1
  store i32 1, ptr %6, align 4
  br label %49

43:                                               ; preds = %35
  %44 = load i8, ptr %5, align 1
  %45 = zext i8 %44 to i32
  %46 = load i32, ptr %4, align 4
  %47 = add i32 %46, %45
  store i32 %47, ptr %4, align 4
  br label %7, !llvm.loop !14

48:                                               ; preds = %7
  store i1 true, ptr %2, align 1
  store i32 1, ptr %6, align 4
  br label %49

49:                                               ; preds = %48, %42, %34, %25, %17
  call void @llvm.lifetime.end.p0(i64 1, ptr %5) #7
  call void @llvm.lifetime.end.p0(i64 4, ptr %4) #7
  %50 = load i1, ptr %2, align 1
  ret i1 %50
}

; Function Attrs: null_pointer_is_valid sspstrong uwtable
define internal zeroext i1 @dissect_cltp_heur(ptr noundef %0, ptr noundef %1, ptr noundef %2, ptr noundef %3) #0 {
  %5 = alloca i1, align 1
  %6 = alloca ptr, align 8
  %7 = alloca ptr, align 8
  %8 = alloca ptr, align 8
  %9 = alloca ptr, align 8
  %10 = alloca i8, align 1
  %11 = alloca i8, align 1
  %12 = alloca i8, align 1
  %13 = alloca i32, align 4
  %14 = alloca i32, align 4
  store ptr %0, ptr %6, align 8
  store ptr %1, ptr %7, align 8
  store ptr %2, ptr %8, align 8
  store ptr %3, ptr %9, align 8
  call void @llvm.lifetime.start.p0(i64 1, ptr %10) #7
  call void @llvm.lifetime.start.p0(i64 1, ptr %11) #7
  call void @llvm.lifetime.start.p0(i64 1, ptr %12) #7
  call void @llvm.lifetime.start.p0(i64 4, ptr %13) #7
  store i32 0, ptr %13, align 4
  %15 = load ptr, ptr %6, align 8
  %16 = call i32 @tvb_captured_length(ptr noundef %15)
  %17 = icmp ult i32 %16, 2
  br i1 %17, label %18, label %19

18:                                               ; preds = %4
  store i1 false, ptr %5, align 1
  store i32 1, ptr %14, align 4
  br label %79

19:                                               ; preds = %4
  %20 = load ptr, ptr %6, align 8
  %21 = load i32, ptr %13, align 4
  %22 = add i32 %21, 1
  store i32 %22, ptr %13, align 4
  %23 = call zeroext i8 @tvb_get_uint8(ptr noundef %20, i32 noundef %21)
  store i8 %23, ptr %10, align 1
  %24 = load i8, ptr %10, align 1
  %25 = zext i8 %24 to i32
  %26 = icmp eq i32 %25, 0
  br i1 %26, label %31, label %27

27:                                               ; preds = %19
  %28 = load i8, ptr %10, align 1
  %29 = zext i8 %28 to i32
  %30 = icmp eq i32 %29, 255
  br i1 %30, label %31, label %32

31:                                               ; preds = %27, %19
  store i1 false, ptr %5, align 1
  store i32 1, ptr %14, align 4
  br label %79

32:                                               ; preds = %27
  %33 = load ptr, ptr %6, align 8
  %34 = load i32, ptr %13, align 4
  %35 = add i32 %34, 1
  store i32 %35, ptr %13, align 4
  %36 = call zeroext i8 @tvb_get_uint8(ptr noundef %33, i32 noundef %34)
  %37 = zext i8 %36 to i32
  %38 = and i32 %37, 240
  %39 = ashr i32 %38, 4
  %40 = trunc i32 %39 to i8
  store i8 %40, ptr %11, align 1
  %41 = load i8, ptr %11, align 1
  %42 = zext i8 %41 to i32
  %43 = icmp ne i32 %42, 4
  br i1 %43, label %44, label %45

44:                                               ; preds = %32
  store i1 false, ptr %5, align 1
  store i32 1, ptr %14, align 4
  br label %79

45:                                               ; preds = %32
  %46 = load i8, ptr %10, align 1
  %47 = add i8 %46, -1
  store i8 %47, ptr %10, align 1
  %48 = load ptr, ptr %6, align 8
  %49 = load i32, ptr %13, align 4
  %50 = load i8, ptr %10, align 1
  %51 = zext i8 %50 to i32
  %52 = call ptr @tvb_new_subset_length(ptr noundef %48, i32 noundef %49, i32 noundef %51)
  %53 = call zeroext i1 @test_cltp_var_part(ptr noundef %52)
  br i1 %53, label %55, label %54

54:                                               ; preds = %45
  store i1 false, ptr %5, align 1
  store i32 1, ptr %14, align 4
  br label %79

55:                                               ; preds = %45
  %56 = load i8, ptr %10, align 1
  %57 = zext i8 %56 to i32
  %58 = load i32, ptr %13, align 4
  %59 = add i32 %58, %57
  store i32 %59, ptr %13, align 4
  %60 = load ptr, ptr %6, align 8
  %61 = load i32, ptr %13, align 4
  %62 = call i32 @tvb_captured_length_remaining(ptr noundef %60, i32 noundef %61)
  %63 = icmp slt i32 %62, 1
  br i1 %63, label %64, label %65

64:                                               ; preds = %55
  store i1 false, ptr %5, align 1
  store i32 1, ptr %14, align 4
  br label %79

65:                                               ; preds = %55
  %66 = load ptr, ptr %6, align 8
  %67 = load i32, ptr %13, align 4
  %68 = call zeroext i8 @tvb_get_uint8(ptr noundef %66, i32 noundef %67)
  store i8 %68, ptr %12, align 1
  %69 = load i8, ptr %12, align 1
  %70 = zext i8 %69 to i32
  %71 = icmp ne i32 %70, 161
  br i1 %71, label %72, label %73

72:                                               ; preds = %65
  store i1 false, ptr %5, align 1
  store i32 1, ptr %14, align 4
  br label %79

73:                                               ; preds = %65
  %74 = load ptr, ptr %6, align 8
  %75 = load ptr, ptr %7, align 8
  %76 = load ptr, ptr %8, align 8
  %77 = load ptr, ptr %9, align 8
  %78 = call i32 @dissect_ositp(ptr noundef %74, ptr noundef %75, ptr noundef %76, ptr noundef %77)
  store i1 true, ptr %5, align 1
  store i32 1, ptr %14, align 4
  br label %79

79:                                               ; preds = %73, %72, %64, %54, %44, %31, %18
  call void @llvm.lifetime.end.p0(i64 4, ptr %13) #7
  call void @llvm.lifetime.end.p0(i64 1, ptr %12) #7
  call void @llvm.lifetime.end.p0(i64 1, ptr %11) #7
  call void @llvm.lifetime.end.p0(i64 1, ptr %10) #7
  %80 = load i1, ptr %5, align 1
  ret i1 %80
}