; Function Attrs: null_pointer_is_valid sspstrong uwtable
define internal noundef zeroext i1 @dissect_cltp_heur(ptr noundef %0, ptr noundef %1, ptr noundef %2, ptr readnone captures(none) %3) #0 {
  %5 = tail call i32 @tvb_captured_length(ptr noundef %0)
  %6 = icmp ult i32 %5, 2
  br i1 %6, label %test_cltp_var_part.exit.thread, label %7

7:                                                ; preds = %4
  %8 = tail call zeroext i8 @tvb_get_uint8(ptr noundef %0, i32 noundef 0)
  %9 = add i8 %8, 1
  %or.cond = icmp ult i8 %9, 2
  br i1 %or.cond, label %test_cltp_var_part.exit.thread, label %10

10:                                               ; preds = %7
  %11 = tail call zeroext i8 @tvb_get_uint8(ptr noundef %0, i32 noundef 1)
  %.mask = and i8 %11, -16
  %.not = icmp eq i8 %.mask, 64
  br i1 %.not, label %12, label %test_cltp_var_part.exit.thread

12:                                               ; preds = %10
  %13 = add i8 %8, -1
  %14 = zext i8 %13 to i32
  %15 = tail call ptr @tvb_new_subset_length(ptr noundef %0, i32 noundef 2, i32 noundef %14)
  %16 = tail call i32 @tvb_captured_length_remaining(ptr noundef %15, i32 noundef 0)
  %.not16.i = icmp eq i32 %16, 0
  br i1 %.not16.i, label %test_cltp_var_part.exit, label %.lr.ph.i

17:                                               ; preds = %28
  %18 = add i32 %30, %29
  %19 = tail call i32 @tvb_captured_length_remaining(ptr noundef %15, i32 noundef %18)
  %.not.i = icmp eq i32 %19, 0
  br i1 %.not.i, label %test_cltp_var_part.exit, label %.lr.ph.i, !llvm.loop !6

.lr.ph.i:                                         ; preds = %12, %17
  %.01417.i = phi i32 [ %18, %17 ], [ 0, %12 ]
  %20 = tail call i32 @tvb_captured_length_remaining(ptr noundef %15, i32 noundef %.01417.i)
  %21 = icmp slt i32 %20, 2
  br i1 %21, label %test_cltp_var_part.exit.thread, label %22

22:                                               ; preds = %.lr.ph.i
  %23 = tail call zeroext i8 @tvb_get_uint8(ptr noundef %15, i32 noundef %.01417.i)
  %.off.i = add i8 %23, 63
  %switch.i = icmp ult i8 %.off.i, 3
  br i1 %switch.i, label %24, label %test_cltp_var_part.exit.thread

24:                                               ; preds = %22
  %25 = add i32 %.01417.i, 1
  %26 = tail call zeroext i8 @tvb_get_uint8(ptr noundef %15, i32 noundef %25)
  %27 = icmp eq i8 %26, -1
  br i1 %27, label %test_cltp_var_part.exit.thread, label %28

28:                                               ; preds = %24
  %29 = zext i8 %26 to i32
  %30 = add i32 %.01417.i, 2
  %31 = tail call i32 @tvb_captured_length_remaining(ptr noundef %15, i32 noundef %30)
  %32 = icmp slt i32 %31, %29
  br i1 %32, label %test_cltp_var_part.exit.thread, label %17

test_cltp_var_part.exit:                          ; preds = %17, %12
  %33 = add nuw nsw i32 %14, 2
  %34 = tail call i32 @tvb_captured_length_remaining(ptr noundef %0, i32 noundef %33)
  %35 = icmp slt i32 %34, 1
  br i1 %35, label %test_cltp_var_part.exit.thread, label %36

36:                                               ; preds = %test_cltp_var_part.exit
  %37 = tail call zeroext i8 @tvb_get_uint8(ptr noundef %0, i32 noundef %33)
  %.not25 = icmp eq i8 %37, -95
  br i1 %.not25, label %38, label %test_cltp_var_part.exit.thread

38:                                               ; preds = %36
  %39 = tail call fastcc range(i32 0, -1) i32 @dissect_ositp_internal(ptr noundef %0, ptr noundef %1, ptr noundef %2, i1 noundef zeroext false)
  br label %test_cltp_var_part.exit.thread

test_cltp_var_part.exit.thread:                   ; preds = %.lr.ph.i, %22, %24, %28, %36, %test_cltp_var_part.exit, %10, %7, %4, %38
  %.0 = phi i1 [ true, %38 ], [ false, %4 ], [ false, %7 ], [ false, %10 ], [ false, %test_cltp_var_part.exit ], [ false, %36 ], [ false, %28 ], [ false, %24 ], [ false, %22 ], [ false, %.lr.ph.i ]
  ret i1 %.0
}